(lp0
I3
aI11
aI4
aI6
aI6
aI0
aI10
aI12
aI5
aI7
aI1
aI11
aI9
aI11
aI8
aI2
aI7
aI8
aI6
aI6
aI11
aI9
aI2
aI5
aI12
aI3
aI4
aI11
aI10
aI1
aI0
aI11
aI10
aI4
aI9
aI5
aI2
aI11
aI8
aI7
aI11
aI12
aI1
aI11
aI6
aI6
aI0
aI3
aI5
aI3
aI6
aI2
aI0
aI9
aI6
aI4
aI12
aI11
aI10
aI7
aI11
aI8
aI1
aI11
a.